; Function Attrs: mustprogress nounwind uwtable
define noundef ptr @jsonnet_json_extract_string(ptr nocapture noundef readnone %0, ptr noundef %1) local_unnamed_addr #3 {
  %3 = load i32, ptr %1, align 8
  %.not = icmp eq i32 %3, 5
  br i1 %.not, label %4, label %7

4:                                                ; preds = %2
  %5 = getelementptr inbounds i8, ptr %1, i64 8
  %6 = tail call noundef ptr @_ZNKSt7__cxx1112basic_stringIcSt11char_traitsIcESaIcEE5c_strEv(ptr noundef nonnull align 8 dereferenceable(32) %5) #30
  br label %7

7:                                                ; preds = %2, %4
  %.0 = phi ptr [ %6, %4 ], [ null, %2 ]
  ret ptr %.0
}